; Function Attrs: mustprogress noreturn uwtable
define dso_local void @_ZN5vcpkg24command_version_and_exitERKNS_17VcpkgCmdArgumentsERKNS_10FilesystemE(ptr noundef nonnull align 8 dereferenceable(1840) %0, ptr noundef nonnull readnone align 1 captures(none) %1) local_unnamed_addr #0 {
  %3 = alloca %"struct.vcpkg::ParsedArguments", align 8
  %4 = alloca %"struct.vcpkg::LineInfo", align 8
  call void @_ZNK5vcpkg17VcpkgCmdArguments15parse_argumentsERKNS_15CommandMetadataE(ptr dead_on_unwind nonnull writable sret(%"struct.vcpkg::ParsedArguments") align 8 %3, ptr noundef nonnull align 8 dereferenceable(1840) %0, ptr noundef nonnull align 8 dereferenceable(184) @_ZN5vcpkg22CommandVersionMetadataE)
  call void @_ZN5vcpkg15ParsedArgumentsD2Ev(ptr noundef nonnull align 8 dereferenceable(168) %3) #19
  %.sroa.01.0.copyload = load i64, ptr @_ZN5vcpkg23msgVersionCommandHeaderE, align 8, !tbaa !4
  call void @_ZN5vcpkg3msg7printlnIJNS0_9version_tEEJNS_10StringViewEEEEvNS0_8MessageTIJDpT_EEEDpNS0_6TagArgINS_8identityIS5_E4typeET0_EE(i64 %.sroa.01.0.copyload, ptr nonnull @.str, i64 22)
  call void @llvm.lifetime.start.p0(i64 16, ptr nonnull %4) #19
  store i32 34, ptr %4, align 8, !tbaa !8
  %5 = getelementptr inbounds nuw i8, ptr %4, i64 8
  store ptr @.str.4, ptr %5, align 8, !tbaa !13
  call void @_ZN5vcpkg6Checks12exit_successERKNS_8LineInfoE(ptr noundef nonnull align 8 dereferenceable(16) %4) #20
  unreachable
}